target datalayout = "e-m:e-p270:32:32-p271:32:32-p272:64:64-i64:64-i128:128-f80:128-n8:16:32:64-S128"
target triple = "x86_64-pc-linux-gnu"

%"class.pxrInternal_v0_24__pxrReserved__::GfVec3f" = type { [3 x float] }

; Function Attrs: mustprogress nounwind uwtable
define linkonce_odr void @_ZN32pxrInternal_v0_24__pxrReserved__7GfVec3fC2Ef(ptr noundef nonnull align 4 dereferenceable(12) %0, float noundef %1) unnamed_addr #2 comdat align 2 {
  %3 = alloca ptr, align 8
  %4 = alloca float, align 4
  store ptr %0, ptr %3, align 8
  store float %1, ptr %4, align 4
  %5 = load ptr, ptr %3, align 8
  %6 = getelementptr inbounds nuw %"class.pxrInternal_v0_24__pxrReserved__::GfVec3f", ptr %5, i32 0, i32 0
  %7 = load float, ptr %4, align 4
  store float %7, ptr %6, align 4
  %8 = getelementptr inbounds float, ptr %6, i64 1
  %9 = load float, ptr %4, align 4
  store float %9, ptr %8, align 4
  %10 = getelementptr inbounds float, ptr %6, i64 2
  %11 = load float, ptr %4, align 4
  store float %11, ptr %10, align 4
  ret void
}

; Function Attrs: mustprogress uwtable
define noundef zeroext i1 @_ZN32pxrInternal_v0_24__pxrReserved__13UsdGeomSphere13ComputeExtentEdPNS_7VtArrayINS_7GfVec3fEEE(double noundef %0, ptr noundef %1) #0 align 2 {
  %3 = alloca double, align 8
  %4 = alloca ptr, align 8
  %5 = alloca %"class.pxrInternal_v0_24__pxrReserved__::GfVec3f", align 4
  %6 = alloca %"class.pxrInternal_v0_24__pxrReserved__::GfVec3f", align 4
  store double %0, ptr %3, align 8
  store ptr %1, ptr %4, align 8
  %7 = load ptr, ptr %4, align 8
  call void @_ZN32pxrInternal_v0_24__pxrReserved__7VtArrayINS_7GfVec3fEE6resizeEm(ptr noundef nonnull align 8 dereferenceable(40) %7, i64 noundef 2)
  %8 = load double, ptr %3, align 8
  %9 = fneg double %8
  %10 = fptrunc double %9 to float
  call void @_ZN32pxrInternal_v0_24__pxrReserved__7GfVec3fC2Ef(ptr noundef nonnull align 4 dereferenceable(12) %5, float noundef %10)
  %11 = load ptr, ptr %4, align 8
  %12 = call noundef nonnull align 4 dereferenceable(12) ptr @_ZN32pxrInternal_v0_24__pxrReserved__7VtArrayINS_7GfVec3fEEixEm(ptr noundef nonnull align 8 dereferenceable(40) %11, i64 noundef 0)
  call void @llvm.memcpy.p0.p0.i64(ptr align 4 %12, ptr align 4 %5, i64 12, i1 false)
  %13 = load double, ptr %3, align 8
  %14 = fptrunc double %13 to float
  call void @_ZN32pxrInternal_v0_24__pxrReserved__7GfVec3fC2Ef(ptr noundef nonnull align 4 dereferenceable(12) %6, float noundef %14)
  %15 = load ptr, ptr %4, align 8
  %16 = call noundef nonnull align 4 dereferenceable(12) ptr @_ZN32pxrInternal_v0_24__pxrReserved__7VtArrayINS_7GfVec3fEEixEm(ptr noundef nonnull align 8 dereferenceable(40) %15, i64 noundef 1)
  call void @llvm.memcpy.p0.p0.i64(ptr align 4 %16, ptr align 4 %6, i64 12, i1 false)
  ret i1 true
}